target datalayout = "e-m:e-p270:32:32-p271:32:32-p272:64:64-i64:64-i128:128-f80:128-n8:16:32:64-S128"
target triple = "x86_64-pc-linux-gnu"

%"class.grpc_core::Timestamp" = type { i64 }

@_ZL4g_mu = internal global i64 0, align 8
@_ZL9g_cv_wait = internal global i64 0, align 8
@_ZL18g_has_timed_waiter = internal global i8 0, align 1
@_ZL23g_timed_waiter_deadline = internal global %"class.grpc_core::Timestamp" zeroinitializer, align 8
@_ZL8g_kicked = internal global i8 0, align 1
@_ZL25g_timed_waiter_generation = internal global i64 0, align 8

; Function Attrs: mustprogress nounwind uwtable
define linkonce_odr void @_ZN9grpc_core9TimestampC2El(ptr noundef nonnull align 8 dereferenceable(8) %0, i64 noundef %1) unnamed_addr #6 comdat align 2 {
  %3 = alloca ptr, align 8
  %4 = alloca i64, align 8
  store ptr %0, ptr %3, align 8, !tbaa !72
  store i64 %1, ptr %4, align 8, !tbaa !34
  %5 = load ptr, ptr %3, align 8
  %6 = getelementptr inbounds nuw %"class.grpc_core::Timestamp", ptr %5, i32 0, i32 0
  %7 = load i64, ptr %4, align 8, !tbaa !34
  store i64 %7, ptr %6, align 8, !tbaa !74
  ret void
}

; Function Attrs: mustprogress nounwind uwtable
define linkonce_odr noundef i64 @_ZNSt14numeric_limitsIlE3maxEv() #6 comdat align 2 {
  ret i64 9223372036854775807
}

; Function Attrs: mustprogress uwtable
define linkonce_odr i64 @_ZN9grpc_core9Timestamp9InfFutureEv() #4 comdat align 2 {
  %1 = alloca %"class.grpc_core::Timestamp", align 8
  %2 = call noundef i64 @_ZNSt14numeric_limitsIlE3maxEv() #3
  call void @_ZN9grpc_core9TimestampC2El(ptr noundef nonnull align 8 dereferenceable(8) %1, i64 noundef %2)
  %3 = getelementptr inbounds nuw %"class.grpc_core::Timestamp", ptr %1, i32 0, i32 0
  %4 = load i64, ptr %3, align 8
  ret i64 %4
}

; Function Attrs: mustprogress uwtable
define void @_Z16grpc_kick_pollerv() #4 {
  %1 = alloca %"class.grpc_core::Timestamp", align 8
  call void @gpr_mu_lock(ptr noundef @_ZL4g_mu)
  store i8 1, ptr @_ZL8g_kicked, align 1, !tbaa !28
  store i8 0, ptr @_ZL18g_has_timed_waiter, align 1, !tbaa !28
  call void @llvm.lifetime.start.p0(i64 8, ptr %1) #3
  %2 = call i64 @_ZN9grpc_core9Timestamp9InfFutureEv()
  %3 = getelementptr inbounds nuw %"class.grpc_core::Timestamp", ptr %1, i32 0, i32 0
  store i64 %2, ptr %3, align 8
  call void @llvm.memcpy.p0.p0.i64(ptr align 8 @_ZL23g_timed_waiter_deadline, ptr align 8 %1, i64 8, i1 false), !tbaa.struct !33
  call void @llvm.lifetime.end.p0(i64 8, ptr %1) #3
  %4 = load i64, ptr @_ZL25g_timed_waiter_generation, align 8, !tbaa !34
  %5 = add i64 %4, 1
  store i64 %5, ptr @_ZL25g_timed_waiter_generation, align 8, !tbaa !34
  call void @gpr_cv_signal(ptr noundef @_ZL9g_cv_wait)
  call void @gpr_mu_unlock(ptr noundef @_ZL4g_mu)
  ret void
}