; Function Attrs: mustprogress uwtable
define void @_Z16grpc_kick_pollerv() local_unnamed_addr #6 {
  tail call void @gpr_mu_lock(ptr noundef nonnull @_ZL4g_mu)
  store i1 true, ptr @_ZL8g_kicked, align 1
  store i1 false, ptr @_ZL18g_has_timed_waiter, align 1
  store i64 9223372036854775807, ptr @_ZL23g_timed_waiter_deadline.0, align 8, !tbaa !37
  %1 = load i64, ptr @_ZL25g_timed_waiter_generation, align 8, !tbaa !37
  %2 = add i64 %1, 1
  store i64 %2, ptr @_ZL25g_timed_waiter_generation, align 8, !tbaa !37
  tail call void @gpr_cv_signal(ptr noundef nonnull @_ZL9g_cv_wait)
  tail call void @gpr_mu_unlock(ptr noundef nonnull @_ZL4g_mu)
  ret void
}